#include <math.h>
#include <stdio.h>
#include <stdlib.h>
#include <string.h>

// ????????.cpp : ??????????????
//


struct student
{
	int id;
	int chinese;
	int math;
	int total;
};

int main()
{
	int number;
	struct student stu[100000];
	scanf("%d\n",&number);
	for(int i=1;i<=number;++i)
	{
		scanf("%d%d%d",&stu[i].id,&stu[i].chinese,&stu[i].math);
		stu[i].total=stu[i].chinese+stu[i].math;
	}
	for(int i=1;i<=3;++i)
	{
		for(int j=i+1;j<=number;++j)
		{
			if(stu[i].total<stu[j].total)
			{
				struct student temp;
				temp=stu[i];
				stu[i]=stu[j];
				stu[j]=temp;
			}
		}
		printf("%d %d\n",stu[i].id,stu[i].total);
	}
	return 0;
}
